target datalayout = "e-m:e-p270:32:32-p271:32:32-p272:64:64-i64:64-i128:128-f80:128-n8:16:32:64-S128"
target triple = "x86_64-pc-linux-gnu"

%struct.Vec2 = type { float, float }

; Function Attrs: mustprogress uwtable
define dso_local noundef ptr @_Z13lua_vec2_pushP9lua_State(ptr noundef %0) #4 {
  %2 = alloca ptr, align 8
  %3 = alloca ptr, align 8
  store ptr %0, ptr %2, align 8
  %4 = load ptr, ptr %2, align 8
  %5 = call noundef ptr @_Z21lua_newuserdatataggedP9lua_Statemi(ptr noundef %4, i64 noundef 8, i32 noundef 12)
  store ptr %5, ptr %3, align 8
  %6 = load ptr, ptr %2, align 8
  call void @_Z24lua_getuserdatametatableP9lua_Statei(ptr noundef %6, i32 noundef 12)
  %7 = load ptr, ptr %2, align 8
  %8 = call noundef i32 @_Z16lua_setmetatableP9lua_Statei(ptr noundef %7, i32 noundef -2)
  %9 = load ptr, ptr %3, align 8
  ret ptr %9
}

; Function Attrs: mustprogress uwtable
define internal noundef i32 @_ZL8lua_vec2P9lua_State(ptr noundef %0) #4 {
  %2 = alloca ptr, align 8
  %3 = alloca double, align 8
  %4 = alloca double, align 8
  %5 = alloca ptr, align 8
  store ptr %0, ptr %2, align 8
  %6 = load ptr, ptr %2, align 8
  %7 = call noundef double @_Z16luaL_checknumberP9lua_Statei(ptr noundef %6, i32 noundef 1)
  store double %7, ptr %3, align 8
  %8 = load ptr, ptr %2, align 8
  %9 = call noundef double @_Z16luaL_checknumberP9lua_Statei(ptr noundef %8, i32 noundef 2)
  store double %9, ptr %4, align 8
  %10 = load ptr, ptr %2, align 8
  %11 = call noundef ptr @_Z13lua_vec2_pushP9lua_State(ptr noundef %10)
  store ptr %11, ptr %5, align 8
  %12 = load double, ptr %3, align 8
  %13 = fptrunc double %12 to float
  %14 = load ptr, ptr %5, align 8
  %15 = getelementptr inbounds %struct.Vec2, ptr %14, i32 0, i32 0
  store float %13, ptr %15, align 4
  %16 = load double, ptr %4, align 8
  %17 = fptrunc double %16 to float
  %18 = load ptr, ptr %5, align 8
  %19 = getelementptr inbounds %struct.Vec2, ptr %18, i32 0, i32 1
  store float %17, ptr %19, align 4
  ret i32 1
}