; Function Attrs: mustprogress uwtable
define internal noundef i32 @_ZL8lua_vec2P9lua_State(ptr noundef %0) #4 {
  %2 = tail call noundef double @_Z16luaL_checknumberP9lua_Statei(ptr noundef %0, i32 noundef 1)
  %3 = tail call noundef double @_Z16luaL_checknumberP9lua_Statei(ptr noundef %0, i32 noundef 2)
  %4 = tail call noundef ptr @_Z21lua_newuserdatataggedP9lua_Statemi(ptr noundef %0, i64 noundef 8, i32 noundef 12)
  tail call void @_Z24lua_getuserdatametatableP9lua_Statei(ptr noundef %0, i32 noundef 12)
  %5 = tail call noundef i32 @_Z16lua_setmetatableP9lua_Statei(ptr noundef %0, i32 noundef -2)
  %6 = insertelement <2 x double> poison, double %2, i64 0
  %7 = insertelement <2 x double> %6, double %3, i64 1
  %8 = fptrunc <2 x double> %7 to <2 x float>
  store <2 x float> %8, ptr %4, align 4
  ret i32 1
}